ccopy_reg
_reconstructor
p0
(csklearn.preprocessing.data
RobustScaler
p1
c__builtin__
object
p2
Ntp3
Rp4
(dp5
S'center_'
p6
cnumpy.core.multiarray
_reconstruct
p7
(cnumpy
ndarray
p8
(I0
tp9
S'b'
p10
tp11
Rp12
(I1
(I2
tp13
cnumpy
dtype
p14
(S'f8'
p15
I0
I1
tp16
Rp17
(I3
S'<'
p18
NNNI-1
I-1
I0
tp19
bI00
S'\xf6(\\\x8f\xc2\xf5\xc8\xbf\xecQ\xb8\x1e\x85\xeb\xb1?'
p20
tp21
bsS'with_centering'
p22
I01
sS'copy'
p23
I01
sS'scale_'
p24
g7
(g8
(I0
tp25
g10
tp26
Rp27
(I1
(I2
tp28
g17
I00
S'gfffff\xc6?R\xb8\x1e\x85\xebQ\xb8?'
p29
tp30
bsS'with_scaling'
p31
I01
sb.